target datalayout = "e-m:e-p270:32:32-p271:32:32-p272:64:64-i64:64-i128:128-f80:128-n8:16:32:64-S128"
target triple = "x86_64-pc-linux-gnu"

%struct._packet_info = type { ptr, ptr, i32, i32, %struct.nstime_t, %struct.nstime_t, %struct.nstime_t, i8, ptr, ptr, ptr, ptr, %struct._address, %struct._address, %struct._address, %struct._address, %struct._address, %struct._address, i32, ptr, i8, [3 x i8], %struct.anon, i32, i32, i32, i32, ptr, i8, ptr, ptr, i16, i16, i32, i32, i16, i32, i32, ptr, ptr, ptr, i8, i8, i16, i16, i16, i32, i16, i16, ptr, ptr, ptr, ptr, ptr, i32, i32 }
%struct.nstime_t = type { i64, i32 }
%struct._address = type { i32, i32, ptr, ptr }
%struct.anon = type { i8, [3 x i8] }
%struct.wscbor_chunk_t = type { ptr, i32, i32, i32, ptr, ptr, i32, i8, i64 }

@hf_keyparam_keyops_list = internal global i32 0, align 4
@hf_keyparam_keyops_int = internal global i32 0, align 4
@hf_keyparam_keyops_tstr = internal global i32 0, align 4
@ett_keyops_list = internal global i32 0, align 4

; Function Attrs: null_pointer_is_valid sspstrong uwtable
define internal i32 @dissect_keyparam_keyops(ptr noundef %0, ptr noundef %1, ptr noundef %2, ptr noundef %3) #0 {
  %5 = alloca ptr, align 8
  %6 = alloca ptr, align 8
  %7 = alloca ptr, align 8
  %8 = alloca ptr, align 8
  %9 = alloca i32, align 4
  %10 = alloca ptr, align 8
  %11 = alloca ptr, align 8
  %12 = alloca ptr, align 8
  %13 = alloca i64, align 8
  %14 = alloca i32, align 4
  %15 = alloca ptr, align 8
  %16 = alloca ptr, align 8
  store ptr %0, ptr %5, align 8
  store ptr %1, ptr %6, align 8
  store ptr %2, ptr %7, align 8
  store ptr %3, ptr %8, align 8
  call void @llvm.lifetime.start.p0(i64 4, ptr %9) #12
  store i32 0, ptr %9, align 4
  call void @llvm.lifetime.start.p0(i64 8, ptr %10) #12
  %17 = load ptr, ptr %6, align 8
  %18 = getelementptr inbounds nuw %struct._packet_info, ptr %17, i32 0, i32 51
  %19 = load ptr, ptr %18, align 8
  %20 = load ptr, ptr %5, align 8
  %21 = call ptr @wscbor_chunk_read(ptr noundef %19, ptr noundef %20, ptr noundef %9)
  store ptr %21, ptr %10, align 8
  %22 = load ptr, ptr %10, align 8
  %23 = call zeroext i1 @wscbor_require_array(ptr noundef %22)
  call void @llvm.lifetime.start.p0(i64 8, ptr %11) #12
  %24 = load ptr, ptr %7, align 8
  %25 = load i32, ptr @hf_keyparam_keyops_list, align 4
  %26 = load ptr, ptr %6, align 8
  %27 = load ptr, ptr %5, align 8
  %28 = load ptr, ptr %10, align 8
  %29 = call ptr @proto_tree_add_cbor_container(ptr noundef %24, i32 noundef %25, ptr noundef %26, ptr noundef %27, ptr noundef %28)
  store ptr %29, ptr %11, align 8
  %30 = load ptr, ptr %6, align 8
  %31 = getelementptr inbounds nuw %struct._packet_info, ptr %30, i32 0, i32 51
  %32 = load ptr, ptr %31, align 8
  %33 = load ptr, ptr %5, align 8
  %34 = load ptr, ptr %10, align 8
  %35 = call zeroext i1 @wscbor_skip_if_errors(ptr noundef %32, ptr noundef %33, ptr noundef %9, ptr noundef %34)
  br i1 %35, label %82, label %36

36:                                               ; preds = %4
  call void @llvm.lifetime.start.p0(i64 8, ptr %12) #12
  %37 = load ptr, ptr %11, align 8
  %38 = load i32, ptr @ett_keyops_list, align 4
  %39 = call ptr @proto_item_add_subtree(ptr noundef %37, i32 noundef %38)
  store ptr %39, ptr %12, align 8
  call void @llvm.lifetime.start.p0(i64 8, ptr %13) #12
  store i64 0, ptr %13, align 8
  br label %40

40:                                               ; preds = %78, %36
  %41 = load i64, ptr %13, align 8
  %42 = load ptr, ptr %10, align 8
  %43 = getelementptr inbounds nuw %struct.wscbor_chunk_t, ptr %42, i32 0, i32 8
  %44 = load i64, ptr %43, align 8
  %45 = icmp ult i64 %41, %44
  br i1 %45, label %47, label %46

46:                                               ; preds = %40
  store i32 2, ptr %14, align 4
  call void @llvm.lifetime.end.p0(i64 8, ptr %13) #12
  br label %81

47:                                               ; preds = %40
  call void @llvm.lifetime.start.p0(i64 8, ptr %15) #12
  %48 = load ptr, ptr %6, align 8
  %49 = getelementptr inbounds nuw %struct._packet_info, ptr %48, i32 0, i32 51
  %50 = load ptr, ptr %49, align 8
  %51 = load ptr, ptr %5, align 8
  %52 = call ptr @wscbor_chunk_read(ptr noundef %50, ptr noundef %51, ptr noundef %9)
  store ptr %52, ptr %15, align 8
  %53 = load ptr, ptr %15, align 8
  %54 = getelementptr inbounds nuw %struct.wscbor_chunk_t, ptr %53, i32 0, i32 6
  %55 = load i32, ptr %54, align 8
  switch i32 %55, label %76 [
    i32 0, label %56
    i32 1, label %56
    i32 3, label %69
  ]

56:                                               ; preds = %47, %47
  call void @llvm.lifetime.start.p0(i64 8, ptr %16) #12
  %57 = load ptr, ptr %6, align 8
  %58 = getelementptr inbounds nuw %struct._packet_info, ptr %57, i32 0, i32 51
  %59 = load ptr, ptr %58, align 8
  %60 = load ptr, ptr %15, align 8
  %61 = call ptr @wscbor_require_int64(ptr noundef %59, ptr noundef %60)
  store ptr %61, ptr %16, align 8
  %62 = load ptr, ptr %12, align 8
  %63 = load i32, ptr @hf_keyparam_keyops_int, align 4
  %64 = load ptr, ptr %6, align 8
  %65 = load ptr, ptr %5, align 8
  %66 = load ptr, ptr %15, align 8
  %67 = load ptr, ptr %16, align 8
  %68 = call ptr @proto_tree_add_cbor_int64(ptr noundef %62, i32 noundef %63, ptr noundef %64, ptr noundef %65, ptr noundef %66, ptr noundef %67)
  store i32 5, ptr %14, align 4
  call void @llvm.lifetime.end.p0(i64 8, ptr %16) #12
  br label %77

69:                                               ; preds = %47
  %70 = load ptr, ptr %12, align 8
  %71 = load i32, ptr @hf_keyparam_keyops_tstr, align 4
  %72 = load ptr, ptr %6, align 8
  %73 = load ptr, ptr %5, align 8
  %74 = load ptr, ptr %15, align 8
  %75 = call ptr @proto_tree_add_cbor_tstr(ptr noundef %70, i32 noundef %71, ptr noundef %72, ptr noundef %73, ptr noundef %74)
  br label %77

76:                                               ; preds = %47
  br label %77

77:                                               ; preds = %76, %69, %56
  call void @llvm.lifetime.end.p0(i64 8, ptr %15) #12
  br label %78

78:                                               ; preds = %77
  %79 = load i64, ptr %13, align 8
  %80 = add i64 %79, 1
  store i64 %80, ptr %13, align 8
  br label %40, !llvm.loop !11

81:                                               ; preds = %46
  call void @llvm.lifetime.end.p0(i64 8, ptr %12) #12
  br label %82

82:                                               ; preds = %81, %4
  %83 = load ptr, ptr %11, align 8
  %84 = load i32, ptr %9, align 4
  %85 = load ptr, ptr %10, align 8
  %86 = getelementptr inbounds nuw %struct.wscbor_chunk_t, ptr %85, i32 0, i32 1
  %87 = load i32, ptr %86, align 8
  %88 = sub i32 %84, %87
  call void @proto_item_set_len(ptr noundef %83, i32 noundef %88)
  %89 = load i32, ptr %9, align 4
  store i32 1, ptr %14, align 4
  call void @llvm.lifetime.end.p0(i64 8, ptr %11) #12
  call void @llvm.lifetime.end.p0(i64 8, ptr %10) #12
  call void @llvm.lifetime.end.p0(i64 4, ptr %9) #12
  ret i32 %89
}