; Function Attrs: null_pointer_is_valid sspstrong uwtable
define internal i32 @dissect_keyparam_keyops(ptr noundef %0, ptr noundef %1, ptr noundef %2, ptr readnone captures(none) %3) #0 {
  %5 = alloca i32, align 4
  call void @llvm.lifetime.start.p0(i64 4, ptr nonnull %5) #8
  store i32 0, ptr %5, align 4
  %6 = getelementptr inbounds nuw i8, ptr %1, i64 408
  %7 = load ptr, ptr %6, align 8
  %8 = call ptr @wscbor_chunk_read(ptr noundef %7, ptr noundef %0, ptr noundef nonnull %5)
  %9 = call zeroext i1 @wscbor_require_array(ptr noundef %8)
  %10 = load i32, ptr @hf_keyparam_keyops_list, align 4
  %11 = call ptr @proto_tree_add_cbor_container(ptr noundef %2, i32 noundef %10, ptr noundef %1, ptr noundef %0, ptr noundef %8)
  %12 = load ptr, ptr %6, align 8
  %13 = call zeroext i1 @wscbor_skip_if_errors(ptr noundef %12, ptr noundef %0, ptr noundef nonnull %5, ptr noundef %8)
  br i1 %13, label %.loopexit, label %14

14:                                               ; preds = %4
  %15 = load i32, ptr @ett_keyops_list, align 4
  %16 = call ptr @proto_item_add_subtree(ptr noundef %11, i32 noundef %15)
  %17 = getelementptr inbounds nuw i8, ptr %8, i64 48
  %18 = load i64, ptr %17, align 8
  %.not = icmp eq i64 %18, 0
  br i1 %.not, label %.loopexit, label %.lr.ph

.lr.ph:                                           ; preds = %14, %31
  %.029 = phi i64 [ %32, %31 ], [ 0, %14 ]
  %19 = load ptr, ptr %6, align 8
  %20 = call ptr @wscbor_chunk_read(ptr noundef %19, ptr noundef %0, ptr noundef nonnull %5)
  %21 = getelementptr inbounds nuw i8, ptr %20, i64 40
  %22 = load i32, ptr %21, align 8
  switch i32 %22, label %31 [
    i32 0, label %23
    i32 1, label %23
    i32 3, label %28
  ]

23:                                               ; preds = %.lr.ph, %.lr.ph
  %24 = load ptr, ptr %6, align 8
  %25 = call ptr @wscbor_require_int64(ptr noundef %24, ptr noundef %20)
  %26 = load i32, ptr @hf_keyparam_keyops_int, align 4
  %27 = call ptr @proto_tree_add_cbor_int64(ptr noundef %16, i32 noundef %26, ptr noundef %1, ptr noundef %0, ptr noundef %20, ptr noundef %25)
  br label %31

28:                                               ; preds = %.lr.ph
  %29 = load i32, ptr @hf_keyparam_keyops_tstr, align 4
  %30 = call ptr @proto_tree_add_cbor_tstr(ptr noundef %16, i32 noundef %29, ptr noundef %1, ptr noundef %0, ptr noundef %20)
  br label %31

31:                                               ; preds = %.lr.ph, %28, %23
  %32 = add nuw i64 %.029, 1
  %33 = load i64, ptr %17, align 8
  %34 = icmp ult i64 %32, %33
  br i1 %34, label %.lr.ph, label %.loopexit, !llvm.loop !11

.loopexit:                                        ; preds = %31, %14, %4
  %35 = load i32, ptr %5, align 4
  %36 = getelementptr inbounds nuw i8, ptr %8, i64 8
  %37 = load i32, ptr %36, align 8
  %38 = sub i32 %35, %37
  call void @proto_item_set_len(ptr noundef %11, i32 noundef %38)
  %39 = load i32, ptr %5, align 4
  call void @llvm.lifetime.end.p0(i64 4, ptr nonnull %5) #8
  ret i32 %39
}